; Function Attrs: nounwind uwtable
define ptr @l_Array_foldlMUnsafe_fold___at_Std_Tactic_BVDecide_LRAT_Internal_DefaultFormula_performRupCheck___spec__1(ptr noundef %0, ptr noundef readonly captures(none) %1, ptr noundef readonly captures(none) %2, i64 noundef %3, i64 noundef %4, ptr noundef %5) local_unnamed_addr #1 {
  %.not29 = icmp eq i64 %3, %4
  br i1 %.not29, label %._crit_edge, label %.lr.ph

.lr.ph:                                           ; preds = %6
  %7 = getelementptr inbounds nuw i8, ptr %2, i64 24
  br label %8

8:                                                ; preds = %.lr.ph, %28
  %.01731 = phi i64 [ %3, %.lr.ph ], [ %30, %28 ]
  %.01930 = phi ptr [ %5, %.lr.ph ], [ %29, %28 ]
  %9 = getelementptr inbounds nuw [0 x ptr], ptr %7, i64 0, i64 %.01731
  %10 = load ptr, ptr %9, align 8, !tbaa !9
  %11 = ptrtoint ptr %10 to i64
  %12 = and i64 %11, 1
  %.not.i21 = icmp eq i64 %12, 0
  br i1 %.not.i21, label %13, label %lean_array_uget.exit

13:                                               ; preds = %8
  %.val.i.i = load i32, ptr %10, align 4, !tbaa !4
  %14 = icmp sgt i32 %.val.i.i, 0
  br i1 %14, label %15, label %17, !prof !11

15:                                               ; preds = %13
  %16 = add nuw i32 %.val.i.i, 1
  store i32 %16, ptr %10, align 4, !tbaa !4
  br label %20

17:                                               ; preds = %13
  %.not.i.i = icmp eq i32 %.val.i.i, 0
  br i1 %.not.i.i, label %20, label %18

18:                                               ; preds = %17
  tail call void @lean_inc_ref_cold(ptr noundef nonnull %10) #5
  br label %20

lean_array_uget.exit:                             ; preds = %8
  %19 = tail call ptr @l_Std_Tactic_BVDecide_LRAT_Internal_DefaultFormula_confirmRupHint(ptr noundef %0, ptr noundef %1, ptr noundef %.01930, ptr noundef %10)
  br label %28

20:                                               ; preds = %15, %17, %18
  %21 = tail call ptr @l_Std_Tactic_BVDecide_LRAT_Internal_DefaultFormula_confirmRupHint(ptr noundef %0, ptr noundef %1, ptr noundef %.01930, ptr noundef nonnull %10)
  %22 = load i32, ptr %10, align 4, !tbaa !4
  %23 = icmp sgt i32 %22, 1
  br i1 %23, label %24, label %26, !prof !11

24:                                               ; preds = %20
  %25 = add nsw i32 %22, -1
  store i32 %25, ptr %10, align 4, !tbaa !4
  br label %28

26:                                               ; preds = %20
  %.not.i = icmp eq i32 %22, 0
  br i1 %.not.i, label %28, label %27

27:                                               ; preds = %26
  tail call void @lean_dec_ref_cold(ptr noundef nonnull %10) #5
  br label %28

28:                                               ; preds = %lean_array_uget.exit, %24, %26, %27
  %29 = phi ptr [ %19, %lean_array_uget.exit ], [ %21, %24 ], [ %21, %26 ], [ %21, %27 ]
  %30 = add i64 %.01731, 1
  %.not = icmp eq i64 %30, %4
  br i1 %.not, label %._crit_edge, label %8

._crit_edge:                                      ; preds = %28, %6
  %.019.lcssa = phi ptr [ %5, %6 ], [ %29, %28 ]
  ret ptr %.019.lcssa
}